target datalayout = "e-m:e-p270:32:32-p271:32:32-p272:64:64-i64:64-i128:128-f80:128-n8:16:32:64-S128"
target triple = "x86_64-pc-linux-gnu"

%struct.darktable_t = type { %struct.dt_codepath_t, i32, i32, ptr, ptr, ptr, ptr, ptr, ptr, ptr, ptr, ptr, ptr, ptr, ptr, ptr, ptr, ptr, ptr, ptr, ptr, ptr, ptr, ptr, ptr, ptr, ptr, ptr, ptr, ptr, [64 x %struct.dt_pthread_mutex_t], %struct.dt_pthread_mutex_t, %struct.dt_pthread_mutex_t, %struct.dt_pthread_mutex_t, %struct.dt_pthread_mutex_t, %struct.dt_pthread_mutex_t, ptr, ptr, ptr, ptr, ptr, ptr, ptr, ptr, ptr, ptr, ptr, ptr, ptr, %struct.dt_lua_state_t, ptr, double, ptr, i32, [47 x i32], i32, i32, ptr, ptr, %struct.dt_sys_resources_t, %struct.dt_backthumb_t, %struct.dt_gimp_t }
%struct.dt_codepath_t = type { i8, [3 x i8] }
%struct.dt_pthread_mutex_t = type { %union.pthread_mutex_t }
%union.pthread_mutex_t = type { %struct.__pthread_mutex_s }
%struct.__pthread_mutex_s = type { i32, i32, i32, i32, i32, i16, i16, %struct.__pthread_internal_list }
%struct.__pthread_internal_list = type { ptr, ptr }
%struct.dt_lua_state_t = type { i32 }
%struct.dt_sys_resources_t = type { i64, i64, ptr, ptr, i32 }
%struct.dt_backthumb_t = type { double, double, i32, i32, i32, i32 }
%struct.dt_gimp_t = type { i32, ptr, ptr, i32, i32 }

@darktable = external global %struct.darktable_t, align 8
@.str = private unnamed_addr constant [41 x i8] c"[sql] %s:%d, function %s(): prepare \22%s\22\00", align 1
@.str.1 = private unnamed_addr constant [119 x i8] c"generated/home/dtcxzyw/WorkSpace/Projects/compilers/llvm-opt-benchmark/bench/darktable/darktable/src/control/crawler.c\00", align 1
@stderr = external global ptr, align 8
@.str.3 = private unnamed_addr constant [53 x i8] c"sqlite3 error: %s:%d, function %s(), query \22%s\22: %s\0A\00", align 1
@__FUNCTION__._db_update_timestamp = private unnamed_addr constant [21 x i8] c"_db_update_timestamp\00", align 1
@.str.53 = private unnamed_addr constant [58 x i8] c"UPDATE main.images SET write_timestamp = ?2 WHERE id = ?1\00", align 1
@.str.54 = private unnamed_addr constant [41 x i8] c"sqlite3 error: %s:%d, function %s(): %s\0A\00", align 1

; Function Attrs: nounwind uwtable
define internal void @_db_update_timestamp(i32 noundef %0, i64 noundef %1) #0 {
  %3 = alloca i32, align 4
  %4 = alloca i64, align 8
  %5 = alloca ptr, align 8
  %6 = alloca i32, align 4
  %7 = alloca i32, align 4
  %8 = alloca i32, align 4
  store i32 %0, ptr %3, align 4, !tbaa !11
  store i64 %1, ptr %4, align 8, !tbaa !56
  call void @llvm.lifetime.start.p0(i64 8, ptr %5) #11
  br label %9

9:                                                ; preds = %2
  br label %10

10:                                               ; preds = %9
  %11 = load i32, ptr getelementptr inbounds nuw (%struct.darktable_t, ptr @darktable, i32 0, i32 2), align 8, !tbaa !13
  %12 = and i32 256, %11
  %13 = icmp ne i32 %12, 0
  br i1 %13, label %14, label %20

14:                                               ; preds = %10
  %15 = load i32, ptr getelementptr inbounds nuw (%struct.darktable_t, ptr @darktable, i32 0, i32 2), align 8, !tbaa !13
  %16 = xor i32 %15, -1
  %17 = and i32 0, %16
  %18 = icmp ne i32 %17, 0
  br i1 %18, label %20, label %19

19:                                               ; preds = %14
  call void (ptr, ...) @dt_print_ext(ptr noundef @.str, ptr noundef @.str.1, i32 noundef 394, ptr noundef @__FUNCTION__._db_update_timestamp, ptr noundef @.str.53)
  br label %20

20:                                               ; preds = %19, %14, %10
  br label %21

21:                                               ; preds = %20
  br label %22

22:                                               ; preds = %21
  call void @llvm.lifetime.start.p0(i64 4, ptr %6) #11
  %23 = load ptr, ptr getelementptr inbounds nuw (%struct.darktable_t, ptr @darktable, i32 0, i32 18), align 8, !tbaa !50
  %24 = call ptr @dt_database_get(ptr noundef %23)
  %25 = call i32 @sqlite3_prepare_v2(ptr noundef %24, ptr noundef @.str.53, i32 noundef -1, ptr noundef %5, ptr noundef null)
  store i32 %25, ptr %6, align 4, !tbaa !11
  %26 = load i32, ptr %6, align 4, !tbaa !11
  %27 = icmp ne i32 %26, 0
  br i1 %27, label %28, label %34

28:                                               ; preds = %22
  %29 = load ptr, ptr @stderr, align 8, !tbaa !51
  %30 = load ptr, ptr getelementptr inbounds nuw (%struct.darktable_t, ptr @darktable, i32 0, i32 18), align 8, !tbaa !50
  %31 = call ptr @dt_database_get(ptr noundef %30)
  %32 = call ptr @sqlite3_errmsg(ptr noundef %31)
  %33 = call i32 (ptr, ptr, ...) @fprintf(ptr noundef %29, ptr noundef @.str.3, ptr noundef @.str.1, i32 noundef 394, ptr noundef @__FUNCTION__._db_update_timestamp, ptr noundef @.str.53, ptr noundef %32) #11
  br label %34

34:                                               ; preds = %28, %22
  call void @llvm.lifetime.end.p0(i64 4, ptr %6) #11
  br label %35

35:                                               ; preds = %34
  br label %36

36:                                               ; preds = %35
  call void @llvm.lifetime.start.p0(i64 4, ptr %7) #11
  %37 = load ptr, ptr %5, align 8, !tbaa !53
  %38 = load i32, ptr %3, align 4, !tbaa !11
  %39 = call i32 @sqlite3_bind_int(ptr noundef %37, i32 noundef 1, i32 noundef %38)
  store i32 %39, ptr %7, align 4, !tbaa !11
  %40 = load i32, ptr %7, align 4, !tbaa !11
  %41 = icmp ne i32 %40, 0
  br i1 %41, label %42, label %48

42:                                               ; preds = %36
  %43 = load ptr, ptr @stderr, align 8, !tbaa !51
  %44 = load ptr, ptr getelementptr inbounds nuw (%struct.darktable_t, ptr @darktable, i32 0, i32 18), align 8, !tbaa !50
  %45 = call ptr @dt_database_get(ptr noundef %44)
  %46 = call ptr @sqlite3_errmsg(ptr noundef %45)
  %47 = call i32 (ptr, ptr, ...) @fprintf(ptr noundef %43, ptr noundef @.str.54, ptr noundef @.str.1, i32 noundef 395, ptr noundef @__FUNCTION__._db_update_timestamp, ptr noundef %46) #11
  br label %48

48:                                               ; preds = %42, %36
  call void @llvm.lifetime.end.p0(i64 4, ptr %7) #11
  call void @llvm.lifetime.start.p0(i64 4, ptr %8) #11
  %49 = load ptr, ptr %5, align 8, !tbaa !53
  %50 = load i64, ptr %4, align 8, !tbaa !56
  %51 = call i32 @sqlite3_bind_int64(ptr noundef %49, i32 noundef 2, i64 noundef %50)
  store i32 %51, ptr %8, align 4, !tbaa !11
  %52 = load i32, ptr %8, align 4, !tbaa !11
  %53 = icmp ne i32 %52, 0
  br i1 %53, label %54, label %60

54:                                               ; preds = %48
  %55 = load ptr, ptr @stderr, align 8, !tbaa !51
  %56 = load ptr, ptr getelementptr inbounds nuw (%struct.darktable_t, ptr @darktable, i32 0, i32 18), align 8, !tbaa !50
  %57 = call ptr @dt_database_get(ptr noundef %56)
  %58 = call ptr @sqlite3_errmsg(ptr noundef %57)
  %59 = call i32 (ptr, ptr, ...) @fprintf(ptr noundef %55, ptr noundef @.str.54, ptr noundef @.str.1, i32 noundef 396, ptr noundef @__FUNCTION__._db_update_timestamp, ptr noundef %58) #11
  br label %60

60:                                               ; preds = %54, %48
  call void @llvm.lifetime.end.p0(i64 4, ptr %8) #11
  %61 = load ptr, ptr %5, align 8, !tbaa !53
  %62 = call i32 @sqlite3_step(ptr noundef %61)
  %63 = load ptr, ptr %5, align 8, !tbaa !53
  %64 = call i32 @sqlite3_finalize(ptr noundef %63)
  call void @llvm.lifetime.end.p0(i64 8, ptr %5) #11
  ret void
}