; Function Attrs: nounwind uwtable
define internal fastcc void @_db_update_timestamp(i32 noundef %0, i64 noundef %1) unnamed_addr #0 {
  %3 = alloca ptr, align 8
  call void @llvm.lifetime.start.p0(i64 8, ptr nonnull %3) #13
  %4 = load i32, ptr getelementptr inbounds nuw (i8, ptr @darktable, i64 8), align 8, !tbaa !6
  %5 = and i32 %4, 256
  %.not = icmp eq i32 %5, 0
  br i1 %.not, label %7, label %6

6:                                                ; preds = %2
  tail call void (ptr, ...) @dt_print_ext(ptr noundef nonnull @.str, ptr noundef nonnull @.str.1, i32 noundef 394, ptr noundef nonnull @__FUNCTION__._db_update_timestamp, ptr noundef nonnull @.str.53) #13
  br label %7

7:                                                ; preds = %6, %2
  %8 = load ptr, ptr getelementptr inbounds nuw (i8, ptr @darktable, i64 136), align 8, !tbaa !48
  %9 = tail call ptr @dt_database_get(ptr noundef %8) #13
  %10 = call i32 @sqlite3_prepare_v2(ptr noundef %9, ptr noundef nonnull @.str.53, i32 noundef -1, ptr noundef nonnull %3, ptr noundef null) #13
  %.not5 = icmp eq i32 %10, 0
  br i1 %.not5, label %17, label %11

11:                                               ; preds = %7
  %12 = load ptr, ptr @stderr, align 8, !tbaa !49
  %13 = load ptr, ptr getelementptr inbounds nuw (i8, ptr @darktable, i64 136), align 8, !tbaa !48
  %14 = call ptr @dt_database_get(ptr noundef %13) #13
  %15 = call ptr @sqlite3_errmsg(ptr noundef %14) #13
  %16 = call i32 (ptr, ptr, ...) @fprintf(ptr noundef %12, ptr noundef nonnull @.str.3, ptr noundef nonnull @.str.1, i32 noundef 394, ptr noundef nonnull @__FUNCTION__._db_update_timestamp, ptr noundef nonnull @.str.53, ptr noundef %15) #14
  br label %17

17:                                               ; preds = %11, %7
  %18 = load ptr, ptr %3, align 8, !tbaa !51
  %19 = call i32 @sqlite3_bind_int(ptr noundef %18, i32 noundef 1, i32 noundef %0) #13
  %.not6 = icmp eq i32 %19, 0
  br i1 %.not6, label %26, label %20

20:                                               ; preds = %17
  %21 = load ptr, ptr @stderr, align 8, !tbaa !49
  %22 = load ptr, ptr getelementptr inbounds nuw (i8, ptr @darktable, i64 136), align 8, !tbaa !48
  %23 = call ptr @dt_database_get(ptr noundef %22) #13
  %24 = call ptr @sqlite3_errmsg(ptr noundef %23) #13
  %25 = call i32 (ptr, ptr, ...) @fprintf(ptr noundef %21, ptr noundef nonnull @.str.54, ptr noundef nonnull @.str.1, i32 noundef 395, ptr noundef nonnull @__FUNCTION__._db_update_timestamp, ptr noundef %24) #14
  br label %26

26:                                               ; preds = %20, %17
  %27 = load ptr, ptr %3, align 8, !tbaa !51
  %28 = call i32 @sqlite3_bind_int64(ptr noundef %27, i32 noundef 2, i64 noundef %1) #13
  %.not7 = icmp eq i32 %28, 0
  br i1 %.not7, label %35, label %29

29:                                               ; preds = %26
  %30 = load ptr, ptr @stderr, align 8, !tbaa !49
  %31 = load ptr, ptr getelementptr inbounds nuw (i8, ptr @darktable, i64 136), align 8, !tbaa !48
  %32 = call ptr @dt_database_get(ptr noundef %31) #13
  %33 = call ptr @sqlite3_errmsg(ptr noundef %32) #13
  %34 = call i32 (ptr, ptr, ...) @fprintf(ptr noundef %30, ptr noundef nonnull @.str.54, ptr noundef nonnull @.str.1, i32 noundef 396, ptr noundef nonnull @__FUNCTION__._db_update_timestamp, ptr noundef %33) #14
  br label %35

35:                                               ; preds = %29, %26
  %36 = load ptr, ptr %3, align 8, !tbaa !51
  %37 = call i32 @sqlite3_step(ptr noundef %36) #13
  %38 = load ptr, ptr %3, align 8, !tbaa !51
  %39 = call i32 @sqlite3_finalize(ptr noundef %38) #13
  call void @llvm.lifetime.end.p0(i64 8, ptr nonnull %3) #13
  ret void
}